; Function Attrs: nofree norecurse nosync nounwind memory(read, argmem: readwrite, inaccessiblemem: none) uwtable
define internal fastcc void @parse_doc_start(ptr nocapture noundef %0) unnamed_addr #4 {
  %2 = getelementptr inbounds i8, ptr %0, i64 16
  %3 = load ptr, ptr %2, align 8
  %4 = getelementptr inbounds i8, ptr %0, i64 112
  store i32 186, ptr %4, align 8
  %5 = getelementptr inbounds i8, ptr %0, i64 24
  %6 = load ptr, ptr %5, align 8
  %7 = ptrtoint ptr %6 to i64
  %8 = ptrtoint ptr %3 to i64
  %9 = sub i64 %7, %8
  %10 = getelementptr inbounds i8, ptr %0, i64 64
  %11 = getelementptr inbounds i8, ptr %0, i64 72
  store i64 %9, ptr %11, align 8
  store ptr %3, ptr %10, align 8
  %12 = getelementptr inbounds i8, ptr %0, i64 36
  %13 = load i32, ptr %12, align 4
  %14 = getelementptr inbounds i8, ptr %0, i64 32
  %15 = load i32, ptr %14, align 8
  %16 = icmp eq i32 %13, %15
  br i1 %16, label %17, label %28

17:                                               ; preds = %1
  %18 = getelementptr inbounds i8, ptr %0, i64 40
  %19 = load ptr, ptr %18, align 8
  %20 = ptrtoint ptr %19 to i64
  %21 = sub i64 %8, %20
  %22 = icmp sgt i64 %21, 254
  %23 = trunc i64 %21 to i8
  %24 = add i8 %23, 1
  %.0.i.i.i = select i1 %22, i8 0, i8 %24
  %25 = icmp sgt i64 %9, 255
  %26 = trunc i64 %9 to i8
  %27 = select i1 %25, i8 0, i8 %26
  br label %return_token.exit

28:                                               ; preds = %1
  %29 = getelementptr inbounds i8, ptr %0, i64 48
  %30 = load ptr, ptr %29, align 8
  %31 = ptrtoint ptr %30 to i64
  %32 = sub i64 %8, %31
  %33 = icmp sgt i64 %32, 254
  %34 = trunc i64 %32 to i8
  %35 = add i8 %34, 1
  %.0.i26.i.i = select i1 %33, i8 0, i8 %35
  br label %return_token.exit

return_token.exit:                                ; preds = %17, %28
  %.024.in.i.i = phi i8 [ %.0.i.i.i, %17 ], [ %.0.i26.i.i, %28 ]
  %.0.i.i = phi i8 [ %27, %17 ], [ 1, %28 ]
  %36 = getelementptr inbounds i8, ptr %0, i64 106
  store i8 %.0.i.i, ptr %36, align 2
  %37 = getelementptr inbounds i8, ptr %0, i64 107
  store i8 %.024.in.i.i, ptr %37, align 1
  %38 = getelementptr inbounds i8, ptr %0, i64 108
  store i32 %13, ptr %38, align 4
  %39 = getelementptr inbounds i8, ptr %0, i64 80
  store ptr %3, ptr %39, align 8
  %.017 = load i8, ptr %6, align 1
  switch i8 %.017, label %.lr.ph [
    i8 10, label %._crit_edge
    i8 0, label %._crit_edge
  ]

.lr.ph:                                           ; preds = %return_token.exit, %47
  %40 = phi i8 [ %.0, %47 ], [ %.017, %return_token.exit ]
  %41 = phi ptr [ %48, %47 ], [ %6, %return_token.exit ]
  %42 = icmp eq i8 %40, 42
  br i1 %42, label %43, label %47

43:                                               ; preds = %.lr.ph
  %44 = getelementptr inbounds i8, ptr %41, i64 1
  %45 = load i8, ptr %44, align 1
  %46 = icmp eq i8 %45, 47
  br i1 %46, label %._crit_edge, label %47

47:                                               ; preds = %.lr.ph, %43
  %48 = getelementptr inbounds i8, ptr %41, i64 1
  store ptr %48, ptr %5, align 8
  %.0 = load i8, ptr %48, align 1
  switch i8 %.0, label %.lr.ph [
    i8 10, label %._crit_edge
    i8 0, label %._crit_edge
  ]

._crit_edge:                                      ; preds = %43, %47, %47, %return_token.exit, %return_token.exit
  %49 = getelementptr inbounds i8, ptr %0, i64 116
  store i32 1, ptr %49, align 4
  ret void
}